GAS LISTING /tmp/ccAIfcn1.s 			page 1


   1              		.file	"distance.c"
   2              		.text
   3              	.Ltext0:
   4              		.globl	min2
   6              	min2:
   7              	.LFB2:
   8              		.file 1 "distance.c"
   1:distance.c    **** #include <string.h>
   2:distance.c    **** #include "distance.h"
   3:distance.c    **** 
   4:distance.c    **** int min2(int a, int b){
   9              		.loc 1 4 0
  10              		.cfi_startproc
  11 0000 55       		pushq	%rbp
  12              		.cfi_def_cfa_offset 16
  13              		.cfi_offset 6, -16
  14 0001 4889E5   		movq	%rsp, %rbp
  15              		.cfi_def_cfa_register 6
  16 0004 897DFC   		movl	%edi, -4(%rbp)
  17 0007 8975F8   		movl	%esi, -8(%rbp)
   5:distance.c    **** 	if (a < b){
  18              		.loc 1 5 0
  19 000a 8B45FC   		movl	-4(%rbp), %eax
  20 000d 3B45F8   		cmpl	-8(%rbp), %eax
  21 0010 7D05     		jge	.L2
   6:distance.c    **** 		return a;
  22              		.loc 1 6 0
  23 0012 8B45FC   		movl	-4(%rbp), %eax
  24 0015 EB03     		jmp	.L3
  25              	.L2:
   7:distance.c    **** 	}else{
   8:distance.c    **** 		return b;
  26              		.loc 1 8 0
  27 0017 8B45F8   		movl	-8(%rbp), %eax
  28              	.L3:
   9:distance.c    **** 	}
  10:distance.c    **** }
  29              		.loc 1 10 0
  30 001a 5D       		popq	%rbp
  31              		.cfi_def_cfa 7, 8
  32 001b C3       		ret
  33              		.cfi_endproc
  34              	.LFE2:
  36              		.globl	min3
  38              	min3:
  39              	.LFB3:
  11:distance.c    **** 
  12:distance.c    **** int min3(int a, int b, int c){
  40              		.loc 1 12 0
  41              		.cfi_startproc
  42 001c 55       		pushq	%rbp
  43              		.cfi_def_cfa_offset 16
  44              		.cfi_offset 6, -16
  45 001d 4889E5   		movq	%rsp, %rbp
  46              		.cfi_def_cfa_register 6
  47 0020 4883EC20 		subq	$32, %rsp
  48 0024 897DEC   		movl	%edi, -20(%rbp)
GAS LISTING /tmp/ccAIfcn1.s 			page 2


  49 0027 8975E8   		movl	%esi, -24(%rbp)
  50 002a 8955E4   		movl	%edx, -28(%rbp)
  13:distance.c    **** 	int min_val = min_val = min2(a, b);
  51              		.loc 1 13 0
  52 002d 8B55E8   		movl	-24(%rbp), %edx
  53 0030 8B45EC   		movl	-20(%rbp), %eax
  54 0033 89D6     		movl	%edx, %esi
  55 0035 89C7     		movl	%eax, %edi
  56 0037 E8000000 		call	min2
  56      00
  57 003c 8945FC   		movl	%eax, -4(%rbp)
  14:distance.c    **** 	return min2(min_val, c);
  58              		.loc 1 14 0
  59 003f 8B55E4   		movl	-28(%rbp), %edx
  60 0042 8B45FC   		movl	-4(%rbp), %eax
  61 0045 89D6     		movl	%edx, %esi
  62 0047 89C7     		movl	%eax, %edi
  63 0049 E8000000 		call	min2
  63      00
  15:distance.c    **** }
  64              		.loc 1 15 0
  65 004e C9       		leave
  66              		.cfi_def_cfa 7, 8
  67 004f C3       		ret
  68              		.cfi_endproc
  69              	.LFE3:
  71              		.globl	levensteinDistance
  73              	levensteinDistance:
  74              	.LFB4:
  16:distance.c    **** 
  17:distance.c    **** int levensteinDistance(char *s, char *t){
  75              		.loc 1 17 0
  76              		.cfi_startproc
  77 0050 55       		pushq	%rbp
  78              		.cfi_def_cfa_offset 16
  79              		.cfi_offset 6, -16
  80 0051 4889E5   		movq	%rsp, %rbp
  81              		.cfi_def_cfa_register 6
  82 0054 4156     		pushq	%r14
  83 0056 4155     		pushq	%r13
  84 0058 4154     		pushq	%r12
  85 005a 53       		pushq	%rbx
  86 005b 4883C480 		addq	$-128, %rsp
  87              		.cfi_offset 14, -24
  88              		.cfi_offset 13, -32
  89              		.cfi_offset 12, -40
  90              		.cfi_offset 3, -48
  91 005f 48897D98 		movq	%rdi, -104(%rbp)
  92 0063 48897590 		movq	%rsi, -112(%rbp)
  93 0067 4889E0   		movq	%rsp, %rax
  94 006a 4989C4   		movq	%rax, %r12
  18:distance.c    **** 	/* Test if the computation has to be made. */
  19:distance.c    **** 	if(s == t){
  95              		.loc 1 19 0
  96 006d 488B4598 		movq	-104(%rbp), %rax
  97 0071 483B4590 		cmpq	-112(%rbp), %rax
  98 0075 750A     		jne	.L7
GAS LISTING /tmp/ccAIfcn1.s 			page 3


  20:distance.c    **** 		return 0;
  99              		.loc 1 20 0
 100 0077 B8000000 		movl	$0, %eax
 100      00
 101 007c E9320200 		jmp	.L8
 101      00
 102              	.L7:
  21:distance.c    **** 	}
  22:distance.c    **** 	
  23:distance.c    **** 	int len_s = strlen(s);
 103              		.loc 1 23 0
 104 0081 488B4598 		movq	-104(%rbp), %rax
 105 0085 4889C7   		movq	%rax, %rdi
 106 0088 E8000000 		call	strlen
 106      00
 107 008d 8945D4   		movl	%eax, -44(%rbp)
  24:distance.c    **** 	int len_t = strlen(t);
 108              		.loc 1 24 0
 109 0090 488B4590 		movq	-112(%rbp), %rax
 110 0094 4889C7   		movq	%rax, %rdi
 111 0097 E8000000 		call	strlen
 111      00
 112 009c 8945D0   		movl	%eax, -48(%rbp)
  25:distance.c    **** 
  26:distance.c    **** 	if(len_s == 0 || len_t == 0){
 113              		.loc 1 26 0
 114 009f 837DD400 		cmpl	$0, -44(%rbp)
 115 00a3 7406     		je	.L9
 116              		.loc 1 26 0 is_stmt 0 discriminator 1
 117 00a5 837DD000 		cmpl	$0, -48(%rbp)
 118 00a9 750A     		jne	.L10
 119              	.L9:
  27:distance.c    **** 		return 0;
 120              		.loc 1 27 0 is_stmt 1
 121 00ab B8000000 		movl	$0, %eax
 121      00
 122 00b0 E9FE0100 		jmp	.L8
 122      00
 123              	.L10:
  28:distance.c    **** 	}
  29:distance.c    **** 	
  30:distance.c    **** 	
  31:distance.c    **** 	/* vectors of integer distances */
  32:distance.c    **** 	int v0[len_t];
 124              		.loc 1 32 0
 125 00b5 8B45D0   		movl	-48(%rbp), %eax
 126 00b8 4863D0   		movslq	%eax, %rdx
 127 00bb 4883EA01 		subq	$1, %rdx
 128 00bf 488955C8 		movq	%rdx, -56(%rbp)
 129 00c3 4863D0   		movslq	%eax, %rdx
 130 00c6 48895580 		movq	%rdx, -128(%rbp)
 131 00ca 48C74588 		movq	$0, -120(%rbp)
 131      00000000 
 132 00d2 4863D0   		movslq	%eax, %rdx
 133 00d5 48899570 		movq	%rdx, -144(%rbp)
 133      FFFFFF
 134 00dc 48C78578 		movq	$0, -136(%rbp)
GAS LISTING /tmp/ccAIfcn1.s 			page 4


 134      FFFFFF00 
 134      000000
 135 00e7 4898     		cltq
 136 00e9 48C1E002 		salq	$2, %rax
 137 00ed 488D5003 		leaq	3(%rax), %rdx
 138 00f1 B8100000 		movl	$16, %eax
 138      00
 139 00f6 4883E801 		subq	$1, %rax
 140 00fa 4801D0   		addq	%rdx, %rax
 141 00fd BB100000 		movl	$16, %ebx
 141      00
 142 0102 BA000000 		movl	$0, %edx
 142      00
 143 0107 48F7F3   		divq	%rbx
 144 010a 486BC010 		imulq	$16, %rax, %rax
 145 010e 4829C4   		subq	%rax, %rsp
 146 0111 4889E0   		movq	%rsp, %rax
 147 0114 4883C003 		addq	$3, %rax
 148 0118 48C1E802 		shrq	$2, %rax
 149 011c 48C1E002 		salq	$2, %rax
 150 0120 488945C0 		movq	%rax, -64(%rbp)
  33:distance.c    **** 	int v1[len_t];
 151              		.loc 1 33 0
 152 0124 8B45D0   		movl	-48(%rbp), %eax
 153 0127 4863D0   		movslq	%eax, %rdx
 154 012a 4883EA01 		subq	$1, %rdx
 155 012e 488955B8 		movq	%rdx, -72(%rbp)
 156 0132 4863D0   		movslq	%eax, %rdx
 157 0135 48899560 		movq	%rdx, -160(%rbp)
 157      FFFFFF
 158 013c 48C78568 		movq	$0, -152(%rbp)
 158      FFFFFF00 
 158      000000
 159 0147 4863D0   		movslq	%eax, %rdx
 160 014a 4989D5   		movq	%rdx, %r13
 161 014d 41BE0000 		movl	$0, %r14d
 161      0000
 162 0153 4898     		cltq
 163 0155 48C1E002 		salq	$2, %rax
 164 0159 488D5003 		leaq	3(%rax), %rdx
 165 015d B8100000 		movl	$16, %eax
 165      00
 166 0162 4883E801 		subq	$1, %rax
 167 0166 4801D0   		addq	%rdx, %rax
 168 0169 BE100000 		movl	$16, %esi
 168      00
 169 016e BA000000 		movl	$0, %edx
 169      00
 170 0173 48F7F6   		divq	%rsi
 171 0176 486BC010 		imulq	$16, %rax, %rax
 172 017a 4829C4   		subq	%rax, %rsp
 173 017d 4889E0   		movq	%rsp, %rax
 174 0180 4883C003 		addq	$3, %rax
 175 0184 48C1E802 		shrq	$2, %rax
 176 0188 48C1E002 		salq	$2, %rax
 177 018c 488945B0 		movq	%rax, -80(%rbp)
  34:distance.c    **** 
GAS LISTING /tmp/ccAIfcn1.s 			page 5


  35:distance.c    **** 	/* Initialise the v0 (the previous row of distances. This row
  36:distance.c    **** 	   is A[0][i]: edit distance for an empty s the distance is
  37:distance.c    **** 	   just the number of characters to delete from t
  38:distance.c    **** 	*/
  39:distance.c    **** 	int i;
  40:distance.c    **** 	for(i = 0; i < len_t; i++){
 178              		.loc 1 40 0
 179 0190 C745DC00 		movl	$0, -36(%rbp)
 179      000000
 180 0197 EB14     		jmp	.L11
 181              	.L12:
  41:distance.c    **** 		v0[i] = i;
 182              		.loc 1 41 0 discriminator 3
 183 0199 488B45C0 		movq	-64(%rbp), %rax
 184 019d 8B55DC   		movl	-36(%rbp), %edx
 185 01a0 4863D2   		movslq	%edx, %rdx
 186 01a3 8B4DDC   		movl	-36(%rbp), %ecx
 187 01a6 890C90   		movl	%ecx, (%rax,%rdx,4)
  40:distance.c    **** 		v0[i] = i;
 188              		.loc 1 40 0 discriminator 3
 189 01a9 8345DC01 		addl	$1, -36(%rbp)
 190              	.L11:
  40:distance.c    **** 		v0[i] = i;
 191              		.loc 1 40 0 is_stmt 0 discriminator 1
 192 01ad 8B45DC   		movl	-36(%rbp), %eax
 193 01b0 3B45D0   		cmpl	-48(%rbp), %eax
 194 01b3 7CE4     		jl	.L12
  42:distance.c    **** 	}
  43:distance.c    **** 
  44:distance.c    **** 	
  45:distance.c    **** 	for(i = 0; i < len_s; i++){
 195              		.loc 1 45 0 is_stmt 1
 196 01b5 C745DC00 		movl	$0, -36(%rbp)
 196      000000
 197 01bc E9D90000 		jmp	.L13
 197      00
 198              	.L18:
 199              	.LBB2:
  46:distance.c    **** 		/* Calculate v1 (current row distances) from the previous row v0.
  47:distance.c    **** 		 * The first element of v1 is A[i+1][0]
  48:distance.c    **** 		 * edit distance is delete (i+1) chars from s to match empty t 
  49:distance.c    **** 		 */
  50:distance.c    **** 
  51:distance.c    **** 		v1[0] = i + 1;
 200              		.loc 1 51 0
 201 01c1 8B45DC   		movl	-36(%rbp), %eax
 202 01c4 8D5001   		leal	1(%rax), %edx
 203 01c7 488B45B0 		movq	-80(%rbp), %rax
 204 01cb 8910     		movl	%edx, (%rax)
  52:distance.c    **** 
  53:distance.c    **** 		/* Use the formula to fill in the rest of the row */
  54:distance.c    **** 		int j;
  55:distance.c    **** 		for(j = 0; j < len_t; j++){
 205              		.loc 1 55 0
 206 01cd C745D800 		movl	$0, -40(%rbp)
 206      000000
 207 01d4 E9820000 		jmp	.L14
GAS LISTING /tmp/ccAIfcn1.s 			page 6


 207      00
 208              	.L15:
 209              	.LBB3:
  56:distance.c    **** 			int cost = (s[i] == t[j])? 0 : 1;
 210              		.loc 1 56 0 discriminator 3
 211 01d9 8B45DC   		movl	-36(%rbp), %eax
 212 01dc 4863D0   		movslq	%eax, %rdx
 213 01df 488B4598 		movq	-104(%rbp), %rax
 214 01e3 4801D0   		addq	%rdx, %rax
 215 01e6 0FB610   		movzbl	(%rax), %edx
 216 01e9 8B45D8   		movl	-40(%rbp), %eax
 217 01ec 4863C8   		movslq	%eax, %rcx
 218 01ef 488B4590 		movq	-112(%rbp), %rax
 219 01f3 4801C8   		addq	%rcx, %rax
 220 01f6 0FB600   		movzbl	(%rax), %eax
 221 01f9 38C2     		cmpb	%al, %dl
 222 01fb 0F95C0   		setne	%al
 223 01fe 0FB6C0   		movzbl	%al, %eax
 224 0201 8945AC   		movl	%eax, -84(%rbp)
  57:distance.c    **** 			v1[j+1] = min3(v1[i] + 1, v0[j+1] + 1, v0[j] + cost);
 225              		.loc 1 57 0 discriminator 3
 226 0204 8B45D8   		movl	-40(%rbp), %eax
 227 0207 8D5801   		leal	1(%rax), %ebx
 228 020a 488B45C0 		movq	-64(%rbp), %rax
 229 020e 8B55D8   		movl	-40(%rbp), %edx
 230 0211 4863D2   		movslq	%edx, %rdx
 231 0214 8B1490   		movl	(%rax,%rdx,4), %edx
 232 0217 8B45AC   		movl	-84(%rbp), %eax
 233 021a 8D3402   		leal	(%rdx,%rax), %esi
 234 021d 8B45D8   		movl	-40(%rbp), %eax
 235 0220 8D5001   		leal	1(%rax), %edx
 236 0223 488B45C0 		movq	-64(%rbp), %rax
 237 0227 4863D2   		movslq	%edx, %rdx
 238 022a 8B0490   		movl	(%rax,%rdx,4), %eax
 239 022d 8D4801   		leal	1(%rax), %ecx
 240 0230 488B45B0 		movq	-80(%rbp), %rax
 241 0234 8B55DC   		movl	-36(%rbp), %edx
 242 0237 4863D2   		movslq	%edx, %rdx
 243 023a 8B0490   		movl	(%rax,%rdx,4), %eax
 244 023d 83C001   		addl	$1, %eax
 245 0240 89F2     		movl	%esi, %edx
 246 0242 89CE     		movl	%ecx, %esi
 247 0244 89C7     		movl	%eax, %edi
 248 0246 E8000000 		call	min3
 248      00
 249 024b 89C1     		movl	%eax, %ecx
 250 024d 488B45B0 		movq	-80(%rbp), %rax
 251 0251 4863D3   		movslq	%ebx, %rdx
 252 0254 890C90   		movl	%ecx, (%rax,%rdx,4)
 253              	.LBE3:
  55:distance.c    **** 			int cost = (s[i] == t[j])? 0 : 1;
 254              		.loc 1 55 0 discriminator 3
 255 0257 8345D801 		addl	$1, -40(%rbp)
 256              	.L14:
  55:distance.c    **** 			int cost = (s[i] == t[j])? 0 : 1;
 257              		.loc 1 55 0 is_stmt 0 discriminator 1
 258 025b 8B45D8   		movl	-40(%rbp), %eax
GAS LISTING /tmp/ccAIfcn1.s 			page 7


 259 025e 3B45D0   		cmpl	-48(%rbp), %eax
 260 0261 0F8C72FF 		jl	.L15
 260      FFFF
  58:distance.c    **** 		}
  59:distance.c    **** 
  60:distance.c    **** 		/* Copy v1 (current row) to v0 (previous row) for next
  61:distance.c    **** 		   iteration
  62:distance.c    **** 		*/
  63:distance.c    **** 		for(j = 0; j < len_t; j++){
 261              		.loc 1 63 0 is_stmt 1
 262 0267 C745D800 		movl	$0, -40(%rbp)
 262      000000
 263 026e EB1E     		jmp	.L16
 264              	.L17:
  64:distance.c    **** 			v0[j] = v1[j];
 265              		.loc 1 64 0 discriminator 3
 266 0270 488B45B0 		movq	-80(%rbp), %rax
 267 0274 8B55D8   		movl	-40(%rbp), %edx
 268 0277 4863D2   		movslq	%edx, %rdx
 269 027a 8B0C90   		movl	(%rax,%rdx,4), %ecx
 270 027d 488B45C0 		movq	-64(%rbp), %rax
 271 0281 8B55D8   		movl	-40(%rbp), %edx
 272 0284 4863D2   		movslq	%edx, %rdx
 273 0287 890C90   		movl	%ecx, (%rax,%rdx,4)
  63:distance.c    **** 			v0[j] = v1[j];
 274              		.loc 1 63 0 discriminator 3
 275 028a 8345D801 		addl	$1, -40(%rbp)
 276              	.L16:
  63:distance.c    **** 			v0[j] = v1[j];
 277              		.loc 1 63 0 is_stmt 0 discriminator 1
 278 028e 8B45D8   		movl	-40(%rbp), %eax
 279 0291 3B45D0   		cmpl	-48(%rbp), %eax
 280 0294 7CDA     		jl	.L17
 281              	.LBE2:
  45:distance.c    **** 		/* Calculate v1 (current row distances) from the previous row v0.
 282              		.loc 1 45 0 is_stmt 1 discriminator 2
 283 0296 8345DC01 		addl	$1, -36(%rbp)
 284              	.L13:
  45:distance.c    **** 		/* Calculate v1 (current row distances) from the previous row v0.
 285              		.loc 1 45 0 is_stmt 0 discriminator 1
 286 029a 8B45DC   		movl	-36(%rbp), %eax
 287 029d 3B45D4   		cmpl	-44(%rbp), %eax
 288 02a0 0F8C1BFF 		jl	.L18
 288      FFFF
  65:distance.c    **** 		}
  66:distance.c    **** 	}
  67:distance.c    **** 	return v1[len_t];
 289              		.loc 1 67 0 is_stmt 1
 290 02a6 488B45B0 		movq	-80(%rbp), %rax
 291 02aa 8B55D0   		movl	-48(%rbp), %edx
 292 02ad 4863D2   		movslq	%edx, %rdx
 293 02b0 8B0490   		movl	(%rax,%rdx,4), %eax
 294              	.L8:
 295 02b3 4C89E4   		movq	%r12, %rsp
  68:distance.c    **** }
 296              		.loc 1 68 0
 297 02b6 488D65E0 		leaq	-32(%rbp), %rsp
GAS LISTING /tmp/ccAIfcn1.s 			page 8


 298 02ba 5B       		popq	%rbx
 299 02bb 415C     		popq	%r12
 300 02bd 415D     		popq	%r13
 301 02bf 415E     		popq	%r14
 302 02c1 5D       		popq	%rbp
 303              		.cfi_def_cfa 7, 8
 304 02c2 C3       		ret
 305              		.cfi_endproc
 306              	.LFE4:
 308              	.Letext0:
GAS LISTING /tmp/ccAIfcn1.s 			page 9

